; Function Attrs: mustprogress nounwind uwtable
define dso_local noundef zeroext i1 @_ZN4absl20StartsWithIgnoreCaseESt17basic_string_viewIcSt11char_traitsIcEES3_(i64 %0, ptr %1, i64 %2, ptr %3) local_unnamed_addr #0 personality ptr @__gxx_personality_v0 {
  %.not = icmp ult i64 %0, %2
  br i1 %.not, label %11, label %5

5:                                                ; preds = %4
  %6 = invoke noundef i32 @_ZN4absl16strings_internal10memcasecmpEPKcS2_m(ptr noundef %1, ptr noundef %3, i64 noundef %2)
          to label %_ZN4absl16EqualsIgnoreCaseESt17basic_string_viewIcSt11char_traitsIcEES3_.exit unwind label %7

7:                                                ; preds = %5
  %8 = landingpad { ptr, i32 }
          catch ptr null
  %9 = extractvalue { ptr, i32 } %8, 0
  tail call void @__clang_call_terminate(ptr %9) #10
  unreachable

_ZN4absl16EqualsIgnoreCaseESt17basic_string_viewIcSt11char_traitsIcEES3_.exit: ; preds = %5
  %10 = icmp eq i32 %6, 0
  br label %11

11:                                               ; preds = %_ZN4absl16EqualsIgnoreCaseESt17basic_string_viewIcSt11char_traitsIcEES3_.exit, %4
  %12 = phi i1 [ false, %4 ], [ %10, %_ZN4absl16EqualsIgnoreCaseESt17basic_string_viewIcSt11char_traitsIcEES3_.exit ]
  ret i1 %12
}